target datalayout = "e-m:e-p270:32:32-p271:32:32-p272:64:64-i64:64-i128:128-f80:128-n8:16:32:64-S128"
target triple = "x86_64-unknown-linux-gnu"

@.str.99 = private unnamed_addr constant [7 x i8] c"%lldgb\00", align 1
@.str.100 = private unnamed_addr constant [7 x i8] c"%lldmb\00", align 1
@.str.101 = private unnamed_addr constant [7 x i8] c"%lldkb\00", align 1
@.str.102 = private unnamed_addr constant [5 x i8] c"%lld\00", align 1

; Function Attrs: nounwind uwtable
define dso_local i32 @rewriteConfigFormatMemory(ptr noundef %buf, i64 noundef %len, i64 noundef %bytes) #0 {
entry:
  %retval = alloca i32, align 4
  %buf.addr = alloca ptr, align 8
  %len.addr = alloca i64, align 8
  %bytes.addr = alloca i64, align 8
  %gb = alloca i32, align 4
  %mb = alloca i32, align 4
  %kb = alloca i32, align 4
  store ptr %buf, ptr %buf.addr, align 8
  store i64 %len, ptr %len.addr, align 8
  store i64 %bytes, ptr %bytes.addr, align 8
  store i32 1073741824, ptr %gb, align 4
  store i32 1048576, ptr %mb, align 4
  store i32 1024, ptr %kb, align 4
  %0 = load i64, ptr %bytes.addr, align 8
  %tobool = icmp ne i64 %0, 0
  br i1 %tobool, label %land.lhs.true, label %if.else

land.lhs.true:                                    ; preds = %entry
  %1 = load i64, ptr %bytes.addr, align 8
  %2 = load i32, ptr %gb, align 4
  %conv = sext i32 %2 to i64
  %rem = srem i64 %1, %conv
  %cmp = icmp eq i64 %rem, 0
  br i1 %cmp, label %if.then, label %if.else

if.then:                                          ; preds = %land.lhs.true
  %3 = load ptr, ptr %buf.addr, align 8
  %4 = load i64, ptr %len.addr, align 8
  %5 = load i64, ptr %bytes.addr, align 8
  %6 = load i32, ptr %gb, align 4
  %conv2 = sext i32 %6 to i64
  %div = sdiv i64 %5, %conv2
  %call = call i32 (ptr, i64, ptr, ...) @snprintf(ptr noundef %3, i64 noundef %4, ptr noundef @.str.99, i64 noundef %div) #14
  store i32 %call, ptr %retval, align 4
  br label %return

if.else:                                          ; preds = %land.lhs.true, %entry
  %7 = load i64, ptr %bytes.addr, align 8
  %tobool3 = icmp ne i64 %7, 0
  br i1 %tobool3, label %land.lhs.true4, label %if.else13

land.lhs.true4:                                   ; preds = %if.else
  %8 = load i64, ptr %bytes.addr, align 8
  %9 = load i32, ptr %mb, align 4
  %conv5 = sext i32 %9 to i64
  %rem6 = srem i64 %8, %conv5
  %cmp7 = icmp eq i64 %rem6, 0
  br i1 %cmp7, label %if.then9, label %if.else13

if.then9:                                         ; preds = %land.lhs.true4
  %10 = load ptr, ptr %buf.addr, align 8
  %11 = load i64, ptr %len.addr, align 8
  %12 = load i64, ptr %bytes.addr, align 8
  %13 = load i32, ptr %mb, align 4
  %conv10 = sext i32 %13 to i64
  %div11 = sdiv i64 %12, %conv10
  %call12 = call i32 (ptr, i64, ptr, ...) @snprintf(ptr noundef %10, i64 noundef %11, ptr noundef @.str.100, i64 noundef %div11) #14
  store i32 %call12, ptr %retval, align 4
  br label %return

if.else13:                                        ; preds = %land.lhs.true4, %if.else
  %14 = load i64, ptr %bytes.addr, align 8
  %tobool14 = icmp ne i64 %14, 0
  br i1 %tobool14, label %land.lhs.true15, label %if.else24

land.lhs.true15:                                  ; preds = %if.else13
  %15 = load i64, ptr %bytes.addr, align 8
  %16 = load i32, ptr %kb, align 4
  %conv16 = sext i32 %16 to i64
  %rem17 = srem i64 %15, %conv16
  %cmp18 = icmp eq i64 %rem17, 0
  br i1 %cmp18, label %if.then20, label %if.else24

if.then20:                                        ; preds = %land.lhs.true15
  %17 = load ptr, ptr %buf.addr, align 8
  %18 = load i64, ptr %len.addr, align 8
  %19 = load i64, ptr %bytes.addr, align 8
  %20 = load i32, ptr %kb, align 4
  %conv21 = sext i32 %20 to i64
  %div22 = sdiv i64 %19, %conv21
  %call23 = call i32 (ptr, i64, ptr, ...) @snprintf(ptr noundef %17, i64 noundef %18, ptr noundef @.str.101, i64 noundef %div22) #14
  store i32 %call23, ptr %retval, align 4
  br label %return

if.else24:                                        ; preds = %land.lhs.true15, %if.else13
  %21 = load ptr, ptr %buf.addr, align 8
  %22 = load i64, ptr %len.addr, align 8
  %23 = load i64, ptr %bytes.addr, align 8
  %call25 = call i32 (ptr, i64, ptr, ...) @snprintf(ptr noundef %21, i64 noundef %22, ptr noundef @.str.102, i64 noundef %23) #14
  store i32 %call25, ptr %retval, align 4
  br label %return

return:                                           ; preds = %if.else24, %if.then20, %if.then9, %if.then
  %24 = load i32, ptr %retval, align 4
  ret i32 %24
}