; Function Attrs: nofree nounwind uwtable
define dso_local noundef i32 @rewriteConfigFormatMemory(ptr nocapture noundef writeonly %buf, i64 noundef %len, i64 noundef %bytes) local_unnamed_addr #13 {
entry:
  %tobool.not = icmp ne i64 %bytes, 0
  %0 = and i64 %bytes, 1073741823
  %cmp = icmp eq i64 %0, 0
  %or.cond = and i1 %tobool.not, %cmp
  br i1 %or.cond, label %if.then, label %if.else

if.then:                                          ; preds = %entry
  %div = ashr exact i64 %bytes, 30
  %call = tail call i32 (ptr, i64, ptr, ...) @snprintf(ptr noundef %buf, i64 noundef %len, ptr noundef nonnull @.str.99, i64 noundef %div) #24
  br label %return

if.else:                                          ; preds = %entry
  %1 = and i64 %bytes, 1048575
  %cmp7 = icmp eq i64 %1, 0
  %or.cond20 = and i1 %tobool.not, %cmp7
  br i1 %or.cond20, label %if.then9, label %if.else13

if.then9:                                         ; preds = %if.else
  %div11 = ashr exact i64 %bytes, 20
  %call12 = tail call i32 (ptr, i64, ptr, ...) @snprintf(ptr noundef %buf, i64 noundef %len, ptr noundef nonnull @.str.100, i64 noundef %div11) #24
  br label %return

if.else13:                                        ; preds = %if.else
  %2 = and i64 %bytes, 1023
  %cmp18 = icmp eq i64 %2, 0
  %or.cond22 = and i1 %tobool.not, %cmp18
  br i1 %or.cond22, label %if.then20, label %if.else24

if.then20:                                        ; preds = %if.else13
  %div22 = ashr exact i64 %bytes, 10
  %call23 = tail call i32 (ptr, i64, ptr, ...) @snprintf(ptr noundef %buf, i64 noundef %len, ptr noundef nonnull @.str.101, i64 noundef %div22) #24
  br label %return

if.else24:                                        ; preds = %if.else13
  %call25 = tail call i32 (ptr, i64, ptr, ...) @snprintf(ptr noundef %buf, i64 noundef %len, ptr noundef nonnull @.str.102, i64 noundef %bytes) #24
  br label %return

return:                                           ; preds = %if.else24, %if.then20, %if.then9, %if.then
  %retval.0 = phi i32 [ %call, %if.then ], [ %call12, %if.then9 ], [ %call23, %if.then20 ], [ %call25, %if.else24 ]
  ret i32 %retval.0
}